; Function Attrs: mustprogress uwtable
define dso_local void @_ZN5vcpkg30visit_required_schemed_versionERKNS_15LocalizedStringERNS_4Json6ReaderERKNS3_6ObjectE(ptr dead_on_unwind noalias writable sret(%"struct.vcpkg::SchemedVersion") align 8 %0, ptr noundef nonnull align 8 dereferenceable(32) %1, ptr noundef nonnull align 8 dereferenceable(120) %2, ptr noundef nonnull align 8 dereferenceable(24) %3) local_unnamed_addr #0 personality ptr @__gxx_personality_v0 {
  %5 = alloca %"struct.vcpkg::Optional", align 8
  %6 = alloca %"struct.vcpkg::LocalizedString", align 8
  call void @_ZN5vcpkg30visit_optional_schemed_versionERKNS_15LocalizedStringERNS_4Json6ReaderERKNS3_6ObjectE(ptr dead_on_unwind nonnull writable sret(%"struct.vcpkg::Optional") align 8 %5, ptr noundef nonnull align 8 dereferenceable(32) %1, ptr noundef nonnull align 8 dereferenceable(120) %2, ptr noundef nonnull align 8 dereferenceable(24) %3)
  %7 = load i8, ptr %5, align 8
  %8 = and i8 %7, 1
  %.not.i = icmp eq i8 %8, 0
  br i1 %.not.i, label %15, label %9

9:                                                ; preds = %4
  %10 = getelementptr inbounds i8, ptr %5, i64 8
  %11 = load i32, ptr %10, align 8
  store i32 %11, ptr %0, align 8
  %12 = getelementptr inbounds i8, ptr %0, i64 8
  %.sroa.gep = getelementptr inbounds i8, ptr %5, i64 16
  call void @_ZNSt7__cxx1112basic_stringIcSt11char_traitsIcESaIcEEC1EOS4_(ptr noundef nonnull align 8 dereferenceable(32) %12, ptr noundef nonnull align 8 dereferenceable(32) %.sroa.gep) #17
  %13 = getelementptr inbounds i8, ptr %0, i64 40
  %.sroa.gep14 = getelementptr inbounds i8, ptr %5, i64 48
  %14 = load i32, ptr %.sroa.gep14, align 8
  store i32 %14, ptr %13, align 8
  br label %25

15:                                               ; preds = %4
  %.sroa.0.0.copyload = load i64, ptr @_ZN5vcpkg17msgVersionMissingE, align 8
  invoke void @_ZN5vcpkg3msg6formatIJEJEEENS_15LocalizedStringENS0_8MessageTIJDpT_EEEDpNS0_6TagArgINS_8identityIS4_E4typeET0_EE(ptr dead_on_unwind nonnull writable sret(%"struct.vcpkg::LocalizedString") align 8 %6, i64 %.sroa.0.0.copyload)
          to label %16 unwind label %21

16:                                               ; preds = %15
  %17 = call { ptr, i64 } @_ZNK5vcpkg15LocalizedStringcvNS_10StringViewEEv(ptr noundef nonnull align 8 dereferenceable(32) %6) #17
  %18 = extractvalue { ptr, i64 } %17, 0
  %19 = extractvalue { ptr, i64 } %17, 1
  invoke void @_ZN5vcpkg4Json6Reader17add_generic_errorERKNS_15LocalizedStringENS_10StringViewE(ptr noundef nonnull align 8 dereferenceable(120) %2, ptr noundef nonnull align 8 dereferenceable(32) %1, ptr %18, i64 %19)
          to label %20 unwind label %23

20:                                               ; preds = %16
  call void @_ZNSt7__cxx1112basic_stringIcSt11char_traitsIcESaIcEED1Ev(ptr noundef nonnull align 8 dereferenceable(32) %6) #17
  call void @_ZN5vcpkg14SchemedVersionC1Ev(ptr noundef nonnull align 8 dereferenceable(48) %0) #17
  br label %25

21:                                               ; preds = %15
  %22 = landingpad { ptr, i32 }
          cleanup
  br label %30

23:                                               ; preds = %16
  %24 = landingpad { ptr, i32 }
          cleanup
  call void @_ZNSt7__cxx1112basic_stringIcSt11char_traitsIcESaIcEED1Ev(ptr noundef nonnull align 8 dereferenceable(32) %6) #17
  br label %30

25:                                               ; preds = %20, %9
  %26 = load i8, ptr %5, align 8
  %27 = and i8 %26, 1
  %.not.i.i = icmp eq i8 %27, 0
  br i1 %.not.i.i, label %_ZN5vcpkg8OptionalINS_14SchemedVersionEED2Ev.exit, label %28

28:                                               ; preds = %25
  %29 = getelementptr inbounds i8, ptr %5, i64 16
  call void @_ZNSt7__cxx1112basic_stringIcSt11char_traitsIcESaIcEED1Ev(ptr noundef nonnull align 8 dereferenceable(32) %29) #17
  br label %_ZN5vcpkg8OptionalINS_14SchemedVersionEED2Ev.exit

_ZN5vcpkg8OptionalINS_14SchemedVersionEED2Ev.exit: ; preds = %25, %28
  ret void

30:                                               ; preds = %23, %21
  %.pn = phi { ptr, i32 } [ %24, %23 ], [ %22, %21 ]
  %31 = load i8, ptr %5, align 8
  %32 = and i8 %31, 1
  %.not.i.i12 = icmp eq i8 %32, 0
  br i1 %.not.i.i12, label %_ZN5vcpkg8OptionalINS_14SchemedVersionEED2Ev.exit13, label %33

33:                                               ; preds = %30
  %34 = getelementptr inbounds i8, ptr %5, i64 16
  call void @_ZNSt7__cxx1112basic_stringIcSt11char_traitsIcESaIcEED1Ev(ptr noundef nonnull align 8 dereferenceable(32) %34) #17
  br label %_ZN5vcpkg8OptionalINS_14SchemedVersionEED2Ev.exit13

_ZN5vcpkg8OptionalINS_14SchemedVersionEED2Ev.exit13: ; preds = %30, %33
  resume { ptr, i32 } %.pn
}